target datalayout = "e-m:e-p270:32:32-p271:32:32-p272:64:64-i64:64-i128:128-f80:128-n8:16:32:64-S128"
target triple = "x86_64-pc-linux-gnu"

%"struct.nanobind::dlpack::dtype" = type { i8, i8, i16 }
%"class.nanobind::object" = type { %"class.nanobind::handle" }
%"class.nanobind::handle" = type { ptr }
%"struct.nanobind::dlpack::dltensor" = type { ptr, %"struct.nanobind::dlpack::device", i32, %"struct.nanobind::dlpack::dtype", ptr, ptr, i64 }
%"struct.nanobind::dlpack::device" = type { i32, i32 }
%"class.std::initializer_list" = type { ptr, i64 }
%"class.std::initializer_list.441" = type { ptr, i64 }
%"class.nanobind::ndarray.149" = type { ptr, %"struct.nanobind::dlpack::dltensor" }
%struct.Matrix4f = type { [4 x [4 x float]] }
%"class.nanobind::detail::ndarray_object" = type { %"class.nanobind::object" }

@_ZN8nanobind6detail12dtype_traitsIfiE5valueE = linkonce_odr hidden constant %"struct.nanobind::dlpack::dtype" { i8 2, i8 32, i16 1 }, comdat, align 2

; Function Attrs: mustprogress nounwind optsize uwtable
define linkonce_odr hidden void @_ZN8nanobind6objectC2ENS_6handleENS_6detail7steal_tE(ptr noundef nonnull align 8 dereferenceable(8) %0, ptr %1) unnamed_addr #8 comdat align 2 {
  %3 = alloca %"class.nanobind::handle", align 8
  %4 = alloca ptr, align 8
  %5 = getelementptr inbounds nuw %"class.nanobind::handle", ptr %3, i32 0, i32 0
  store ptr %1, ptr %5, align 8
  store ptr %0, ptr %4, align 8, !tbaa !21
  %6 = load ptr, ptr %4, align 8
  call void @llvm.memcpy.p0.p0.i64(ptr align 8 %6, ptr align 8 %3, i64 8, i1 false)
  ret void
}

; Function Attrs: alwaysinline mustprogress nounwind optsize uwtable
define linkonce_odr hidden void @_ZN8nanobind6handleC2EPK7_object(ptr noundef nonnull align 8 dereferenceable(8) %0, ptr noundef %1) unnamed_addr #5 comdat align 2 {
  %3 = alloca ptr, align 8
  %4 = alloca ptr, align 8
  store ptr %0, ptr %3, align 8, !tbaa !12
  store ptr %1, ptr %4, align 8, !tbaa !3
  %5 = load ptr, ptr %3, align 8
  %6 = getelementptr inbounds nuw %"class.nanobind::handle", ptr %5, i32 0, i32 0
  %7 = load ptr, ptr %4, align 8, !tbaa !3
  store ptr %7, ptr %6, align 8, !tbaa !14
  ret void
}

; Function Attrs: inlinehint mustprogress nounwind optsize uwtable
define linkonce_odr hidden void @_ZN8nanobind6detail14ndarray_objectIJfNS_5numpyENS0_5shapeIJLl4ELl4EEEENS_8f_contigEEECI2NS_6objectEENS_6handleENS0_7steal_tE(ptr noundef nonnull align 8 dereferenceable(8) %0, ptr %1) unnamed_addr #11 comdat align 2 {
  %3 = alloca %"class.nanobind::handle", align 8
  %4 = alloca ptr, align 8
  %5 = getelementptr inbounds nuw %"class.nanobind::handle", ptr %3, i32 0, i32 0
  store ptr %1, ptr %5, align 8
  store ptr %0, ptr %4, align 8, !tbaa !1015
  %6 = load ptr, ptr %4, align 8
  %7 = getelementptr inbounds nuw %"class.nanobind::handle", ptr %3, i32 0, i32 0
  %8 = load ptr, ptr %7, align 8
  call void @_ZN8nanobind6objectC2ENS_6handleENS_6detail7steal_tE(ptr noundef nonnull align 8 dereferenceable(8) %6, ptr %8) #21
  ret void
}

; Function Attrs: mustprogress optsize uwtable
define linkonce_odr hidden ptr @_ZN8nanobind6object7releaseEv(ptr noundef nonnull align 8 dereferenceable(8) %0) #0 comdat align 2 {
  %2 = alloca %"class.nanobind::handle", align 8
  %3 = alloca ptr, align 8
  store ptr %0, ptr %3, align 8, !tbaa !21
  %4 = load ptr, ptr %3, align 8
  %5 = getelementptr inbounds nuw %"class.nanobind::handle", ptr %4, i32 0, i32 0
  %6 = load ptr, ptr %5, align 8, !tbaa !14
  call void @_ZN8nanobind6handleC2EPK7_object(ptr noundef nonnull align 8 dereferenceable(8) %2, ptr noundef %6) #21
  %7 = getelementptr inbounds nuw %"class.nanobind::handle", ptr %4, i32 0, i32 0
  store ptr null, ptr %7, align 8, !tbaa !14
  %8 = getelementptr inbounds nuw %"class.nanobind::handle", ptr %2, i32 0, i32 0
  %9 = load ptr, ptr %8, align 8
  ret ptr %9
}

; Function Attrs: mustprogress nounwind optsize uwtable
define linkonce_odr hidden void @_ZN8nanobind6objectD2Ev(ptr noundef nonnull align 8 dereferenceable(8) %0) unnamed_addr #8 comdat align 2 {
  %2 = alloca ptr, align 8
  store ptr %0, ptr %2, align 8, !tbaa !21
  %3 = load ptr, ptr %2, align 8
  %4 = call noundef nonnull align 8 dereferenceable(8) ptr @_ZNKR8nanobind6handle7dec_refEv(ptr noundef nonnull align 8 dereferenceable(8) %3) #23
  ret void
}

; Function Attrs: alwaysinline mustprogress optsize uwtable
define linkonce_odr hidden void @_ZN8nanobind6borrowINS_6detail14ndarray_objectIJfNS_5numpyENS1_5shapeIJLl4ELl4EEEENS_8f_contigEEEENS_6objectETnNSt9enable_ifIXaasr3stdE12is_base_of_vIS8_T0_Entsr3stdE21is_lvalue_reference_vISA_EEiE4typeELi0EEET_OSA_(ptr dead_on_unwind noalias writable sret(%"class.nanobind::detail::ndarray_object") align 8 %0, ptr noundef nonnull align 8 dereferenceable(8) %1) #3 comdat {
  %3 = alloca ptr, align 8
  %4 = alloca ptr, align 8
  %5 = alloca %"class.nanobind::handle", align 8
  store ptr %0, ptr %3, align 8
  store ptr %1, ptr %4, align 8, !tbaa !21
  %6 = load ptr, ptr %4, align 8, !tbaa !21
  %7 = call ptr @_ZN8nanobind6object7releaseEv(ptr noundef nonnull align 8 dereferenceable(8) %6) #21
  %8 = getelementptr inbounds nuw %"class.nanobind::handle", ptr %5, i32 0, i32 0
  store ptr %7, ptr %8, align 8
  %9 = getelementptr inbounds nuw %"class.nanobind::handle", ptr %5, i32 0, i32 0
  %10 = load ptr, ptr %9, align 8
  call void @_ZN8nanobind6detail14ndarray_objectIJfNS_5numpyENS0_5shapeIJLl4ELl4EEEENS_8f_contigEEECI2NS_6objectEENS_6handleENS0_7steal_tE(ptr noundef nonnull align 8 dereferenceable(8) %0, ptr %10) #21
  ret void
}

; Function Attrs: mustprogress nounwind optsize uwtable
define linkonce_odr hidden void @_ZN8nanobind7ndarrayIJfNS_5numpyENS_6detail5shapeIJLl4ELl4EEEENS_8f_contigEEED2Ev(ptr noundef nonnull align 8 dereferenceable(56) %0) unnamed_addr #8 comdat align 2 {
  %2 = alloca ptr, align 8
  store ptr %0, ptr %2, align 8, !tbaa !1007
  %3 = load ptr, ptr %2, align 8
  %4 = getelementptr inbounds nuw %"class.nanobind::ndarray.149", ptr %3, i32 0, i32 0
  %5 = load ptr, ptr %4, align 8, !tbaa !1009
  call void @_ZN8nanobind6detail15ndarray_dec_refEPNS0_14ndarray_handleE(ptr noundef %5) #23
  ret void
}

; Function Attrs: mustprogress optsize uwtable
define linkonce_odr hidden void @_ZN8nanobind7ndarrayIJfNS_5numpyENS_6detail5shapeIJLl4ELl4EEEENS_8f_contigEEE4castENS_9rv_policyENS_6handleE(ptr dead_on_unwind noalias writable sret(%"class.nanobind::detail::ndarray_object") align 8 %0, ptr noundef nonnull align 8 dereferenceable(56) %1, i32 noundef %2, ptr %3) #0 comdat align 2 personality ptr @__gxx_personality_v0 {
  %5 = alloca ptr, align 8
  %6 = alloca %"class.nanobind::handle", align 8
  %7 = alloca ptr, align 8
  %8 = alloca i32, align 4
  %9 = alloca %"class.nanobind::object", align 8
  %10 = alloca %"class.nanobind::handle", align 8
  %11 = alloca ptr, align 8
  %12 = alloca i32, align 4
  store ptr %0, ptr %5, align 8
  %13 = getelementptr inbounds nuw %"class.nanobind::handle", ptr %6, i32 0, i32 0
  store ptr %3, ptr %13, align 8
  store ptr %1, ptr %7, align 8, !tbaa !1007
  store i32 %2, ptr %8, align 4, !tbaa !18
  %14 = load ptr, ptr %7, align 8
  call void @llvm.lifetime.start.p0(i64 8, ptr %9) #22
  %15 = load i32, ptr %8, align 4, !tbaa !18
  call void @llvm.memcpy.p0.p0.i64(ptr align 8 %10, ptr align 8 %6, i64 8, i1 false)
  %16 = getelementptr inbounds nuw %"class.nanobind::handle", ptr %10, i32 0, i32 0
  %17 = load ptr, ptr %16, align 8
  call void @_ZN8nanobind4castIRNS_7ndarrayIJfNS_5numpyENS_6detail5shapeIJLl4ELl4EEEENS_8f_contigEEEEEENS_6objectEOT_NS_9rv_policyENS_6handleE(ptr dead_on_unwind writable sret(%"class.nanobind::object") align 8 %9, ptr noundef nonnull align 8 dereferenceable(56) %14, i32 noundef %15, ptr %17) #21
  invoke void @_ZN8nanobind6borrowINS_6detail14ndarray_objectIJfNS_5numpyENS1_5shapeIJLl4ELl4EEEENS_8f_contigEEEENS_6objectETnNSt9enable_ifIXaasr3stdE12is_base_of_vIS8_T0_Entsr3stdE21is_lvalue_reference_vISA_EEiE4typeELi0EEET_OSA_(ptr dead_on_unwind writable sret(%"class.nanobind::detail::ndarray_object") align 8 %0, ptr noundef nonnull align 8 dereferenceable(8) %9) #21
          to label %18 unwind label %19

18:                                               ; preds = %4
  call void @_ZN8nanobind6objectD2Ev(ptr noundef nonnull align 8 dereferenceable(8) %9) #23
  call void @llvm.lifetime.end.p0(i64 8, ptr %9) #22
  ret void

19:                                               ; preds = %4
  %20 = landingpad { ptr, i32 }
          cleanup
  %21 = extractvalue { ptr, i32 } %20, 0
  store ptr %21, ptr %11, align 8
  %22 = extractvalue { ptr, i32 } %20, 1
  store i32 %22, ptr %12, align 4
  call void @_ZN8nanobind6objectD2Ev(ptr noundef nonnull align 8 dereferenceable(8) %9) #23
  call void @llvm.lifetime.end.p0(i64 8, ptr %9) #22
  br label %23

23:                                               ; preds = %19
  %24 = load ptr, ptr %11, align 8
  %25 = load i32, ptr %12, align 4
  %26 = insertvalue { ptr, i32 } poison, ptr %24, 0
  %27 = insertvalue { ptr, i32 } %26, i32 %25, 1
  resume { ptr, i32 } %27
}

; Function Attrs: mustprogress nounwind optsize uwtable
define linkonce_odr hidden i32 @_ZN8nanobind5dtypeIfEENS_6dlpack5dtypeEv() #8 comdat {
  %1 = alloca %"struct.nanobind::dlpack::dtype", align 2
  call void @llvm.memcpy.p0.p0.i64(ptr align 2 %1, ptr align 2 @_ZN8nanobind6detail12dtype_traitsIfiE5valueE, i64 4, i1 false), !tbaa.struct !170
  %2 = load i32, ptr %1, align 2
  ret i32 %2
}

; Function Attrs: mustprogress nounwind optsize uwtable
define linkonce_odr void @_ZNSt16initializer_listIlEC2Ev(ptr noundef nonnull align 8 dereferenceable(16) %0) unnamed_addr #8 comdat align 2 {
  %2 = alloca ptr, align 8
  store ptr %0, ptr %2, align 8, !tbaa !614
  %3 = load ptr, ptr %2, align 8
  %4 = getelementptr inbounds nuw %"class.std::initializer_list.441", ptr %3, i32 0, i32 0
  store ptr null, ptr %4, align 8, !tbaa !616
  %5 = getelementptr inbounds nuw %"class.std::initializer_list.441", ptr %3, i32 0, i32 1
  store i64 0, ptr %5, align 8, !tbaa !618
  ret void
}

; Function Attrs: mustprogress nounwind optsize uwtable
define linkonce_odr hidden void @_ZN8nanobind6handleC2Ev(ptr noundef nonnull align 8 dereferenceable(8) %0) unnamed_addr #8 comdat align 2 {
  %2 = alloca ptr, align 8
  store ptr %0, ptr %2, align 8, !tbaa !12
  %3 = load ptr, ptr %2, align 8
  %4 = getelementptr inbounds nuw %"class.nanobind::handle", ptr %3, i32 0, i32 0
  store ptr null, ptr %4, align 8, !tbaa !14
  ret void
}

; Function Attrs: mustprogress nounwind optsize uwtable
define linkonce_odr void @_ZNSt16initializer_listImEC2Ev(ptr noundef nonnull align 8 dereferenceable(16) %0) unnamed_addr #8 comdat align 2 {
  %2 = alloca ptr, align 8
  store ptr %0, ptr %2, align 8, !tbaa !619
  %3 = load ptr, ptr %2, align 8
  %4 = getelementptr inbounds nuw %"class.std::initializer_list", ptr %3, i32 0, i32 0
  store ptr null, ptr %4, align 8, !tbaa !62
  %5 = getelementptr inbounds nuw %"class.std::initializer_list", ptr %3, i32 0, i32 1
  store i64 0, ptr %5, align 8, !tbaa !65
  ret void
}

; Function Attrs: mustprogress optsize uwtable
define internal void @_ZZL30nanobind_init_test_ndarray_extRN8nanobind7module_EEN8Matrix4f9data_copyEv(ptr dead_on_unwind noalias writable sret(%"class.nanobind::detail::ndarray_object") align 8 %0, ptr noundef nonnull align 4 dereferenceable(64) %1) #0 align 2 personality ptr @__gxx_personality_v0 {
  %3 = alloca ptr, align 8
  %4 = alloca ptr, align 8
  %5 = alloca %"class.nanobind::ndarray.149", align 8
  %6 = alloca %"class.std::initializer_list", align 8
  %7 = alloca %"class.nanobind::handle", align 8
  %8 = alloca %"class.std::initializer_list.441", align 8
  %9 = alloca %"struct.nanobind::dlpack::dtype", align 2
  %10 = alloca %"class.nanobind::handle", align 8
  %11 = alloca ptr, align 8
  %12 = alloca i32, align 4
  store ptr %0, ptr %3, align 8
  store ptr %1, ptr %4, align 8, !tbaa !68
  %13 = load ptr, ptr %4, align 8
  call void @llvm.lifetime.start.p0(i64 56, ptr %5) #22
  %14 = getelementptr inbounds nuw %struct.Matrix4f, ptr %13, i32 0, i32 0
  %15 = getelementptr inbounds [4 x [4 x float]], ptr %14, i64 0, i64 0
  call void @_ZNSt16initializer_listImEC2Ev(ptr noundef nonnull align 8 dereferenceable(16) %6) #23
  call void @llvm.memset.p0.i64(ptr align 8 %7, i8 0, i64 8, i1 false)
  call void @_ZN8nanobind6handleC2Ev(ptr noundef nonnull align 8 dereferenceable(8) %7) #23
  call void @_ZNSt16initializer_listIlEC2Ev(ptr noundef nonnull align 8 dereferenceable(16) %8) #23
  %16 = call i32 @_ZN8nanobind5dtypeIfEENS_6dlpack5dtypeEv() #21
  store i32 %16, ptr %9, align 2
  %17 = getelementptr inbounds nuw { ptr, i64 }, ptr %6, i32 0, i32 0
  %18 = load ptr, ptr %17, align 8
  %19 = getelementptr inbounds nuw { ptr, i64 }, ptr %6, i32 0, i32 1
  %20 = load i64, ptr %19, align 8
  %21 = getelementptr inbounds nuw %"class.nanobind::handle", ptr %7, i32 0, i32 0
  %22 = load ptr, ptr %21, align 8
  %23 = load i32, ptr %9, align 2
  call void @_ZN8nanobind7ndarrayIJfNS_5numpyENS_6detail5shapeIJLl4ELl4EEEENS_8f_contigEEEC2EPvSt16initializer_listImENS_6handleES8_IlENS_6dlpack5dtypeEiic(ptr noundef nonnull align 8 dereferenceable(56) %5, ptr noundef %15, ptr %18, i64 %20, ptr %22, ptr noundef byval(%"class.std::initializer_list.441") align 8 %8, i32 %23, i32 noundef 0, i32 noundef 0, i8 noundef signext 70) #21
  call void @llvm.memset.p0.i64(ptr align 8 %10, i8 0, i64 8, i1 false)
  call void @_ZN8nanobind6handleC2Ev(ptr noundef nonnull align 8 dereferenceable(8) %10) #23
  %24 = getelementptr inbounds nuw %"class.nanobind::handle", ptr %10, i32 0, i32 0
  %25 = load ptr, ptr %24, align 8
  invoke void @_ZN8nanobind7ndarrayIJfNS_5numpyENS_6detail5shapeIJLl4ELl4EEEENS_8f_contigEEE4castENS_9rv_policyENS_6handleE(ptr dead_on_unwind writable sret(%"class.nanobind::detail::ndarray_object") align 8 %0, ptr noundef nonnull align 8 dereferenceable(56) %5, i32 noundef 3, ptr %25) #21
          to label %26 unwind label %27

26:                                               ; preds = %2
  call void @_ZN8nanobind7ndarrayIJfNS_5numpyENS_6detail5shapeIJLl4ELl4EEEENS_8f_contigEEED2Ev(ptr noundef nonnull align 8 dereferenceable(56) %5) #23
  call void @llvm.lifetime.end.p0(i64 56, ptr %5) #22
  ret void

27:                                               ; preds = %2
  %28 = landingpad { ptr, i32 }
          cleanup
  %29 = extractvalue { ptr, i32 } %28, 0
  store ptr %29, ptr %11, align 8
  %30 = extractvalue { ptr, i32 } %28, 1
  store i32 %30, ptr %12, align 4
  call void @_ZN8nanobind7ndarrayIJfNS_5numpyENS_6detail5shapeIJLl4ELl4EEEENS_8f_contigEEED2Ev(ptr noundef nonnull align 8 dereferenceable(56) %5) #23
  call void @llvm.lifetime.end.p0(i64 56, ptr %5) #22
  br label %31

31:                                               ; preds = %27
  %32 = load ptr, ptr %11, align 8
  %33 = load i32, ptr %12, align 4
  %34 = insertvalue { ptr, i32 } poison, ptr %32, 0
  %35 = insertvalue { ptr, i32 } %34, i32 %33, 1
  resume { ptr, i32 } %35
}