; Function Attrs: mustprogress optsize uwtable
define internal void @_ZZL30nanobind_init_test_ndarray_extRN8nanobind7module_EEN8Matrix4f9data_copyEv(ptr dead_on_unwind noalias writable writeonly sret(%"class.nanobind::detail::ndarray_object") align 8 captures(none) %0, ptr noundef nonnull align 4 dereferenceable(64) %1) #0 align 2 personality ptr @__gxx_personality_v0 {
  %3 = alloca %"class.nanobind::object", align 8
  %4 = alloca %"class.nanobind::ndarray.149", align 8
  %5 = alloca %"class.std::initializer_list.441", align 8
  call void @llvm.lifetime.start.p0(i64 56, ptr nonnull %4) #22
  call void @llvm.memset.p0.i64(ptr noundef nonnull align 8 dereferenceable(16) %5, i8 0, i64 16, i1 false)
  call void @_ZN8nanobind7ndarrayIJfNS_5numpyENS_6detail5shapeIJLl4ELl4EEEENS_8f_contigEEEC2EPvSt16initializer_listImENS_6handleES8_IlENS_6dlpack5dtypeEiic(ptr noundef nonnull align 8 dereferenceable(56) %4, ptr noundef nonnull %1, ptr null, i64 0, ptr null, ptr noundef nonnull byval(%"class.std::initializer_list.441") align 8 %5, i32 73730, i32 noundef 0, i32 noundef 0, i8 noundef signext 70) #21
  call void @llvm.experimental.noalias.scope.decl(metadata !84)
  call void @llvm.lifetime.start.p0(i64 8, ptr nonnull %3) #22, !noalias !84
  invoke void @_ZN8nanobind4castIRNS_7ndarrayIJfNS_5numpyENS_6detail5shapeIJLl4ELl4EEEENS_8f_contigEEEEEENS_6objectEOT_NS_9rv_policyENS_6handleE(ptr dead_on_unwind nonnull writable sret(%"class.nanobind::object") align 8 %3, ptr noundef nonnull align 8 dereferenceable(56) %4, i32 noundef 3, ptr null) #21
          to label %6 unwind label %10

6:                                                ; preds = %2
  %7 = load ptr, ptr %3, align 8, !tbaa !58, !noalias !84
  store ptr null, ptr %3, align 8, !tbaa !58, !noalias !84
  store ptr %7, ptr %0, align 8, !alias.scope !84
  %8 = call noundef nonnull align 8 dereferenceable(8) ptr @_ZNKR8nanobind6handle7dec_refEv(ptr noundef nonnull align 8 dereferenceable(8) %3) #23, !noalias !84
  call void @llvm.lifetime.end.p0(i64 8, ptr nonnull %3) #22, !noalias !84
  %9 = load ptr, ptr %4, align 8, !tbaa !77
  call void @_ZN8nanobind6detail15ndarray_dec_refEPNS0_14ndarray_handleE(ptr noundef %9) #23
  call void @llvm.lifetime.end.p0(i64 56, ptr nonnull %4) #22
  ret void

10:                                               ; preds = %2
  %11 = landingpad { ptr, i32 }
          cleanup
  %12 = load ptr, ptr %4, align 8, !tbaa !77
  call void @_ZN8nanobind6detail15ndarray_dec_refEPNS0_14ndarray_handleE(ptr noundef %12) #23
  call void @llvm.lifetime.end.p0(i64 56, ptr nonnull %4) #22
  resume { ptr, i32 } %11
}